; Function Attrs: mustprogress uwtable
define hidden void @_ZN2cv8tracking4impl14TrackerMILImplC2ERKNS_10TrackerMIL6ParamsE(ptr noundef nonnull align 8 dereferenceable(88) %0, ptr noundef nonnull readonly align 4 captures(none) dereferenceable(28) %1) unnamed_addr #3 align 2 {
  tail call void @_ZN2cv7TrackerC2Ev(ptr noundef nonnull align 8 dereferenceable(8) %0)
  store ptr getelementptr inbounds nuw inrange(-16, 32) (i8, ptr @_ZTVN2cv8tracking4impl14TrackerMILImplE, i64 16), ptr %0, align 8, !tbaa !11
  %3 = getelementptr inbounds nuw i8, ptr %0, i64 8
  tail call void @llvm.memcpy.p0.p0.i64(ptr noundef nonnull align 8 dereferenceable(28) %3, ptr noundef nonnull align 4 dereferenceable(28) %1, i64 28, i1 false), !tbaa.struct !81
  %4 = getelementptr inbounds nuw i8, ptr %0, i64 40
  tail call void @llvm.memset.p0.i64(ptr noundef nonnull align 8 dereferenceable(48) %4, i8 0, i64 48, i1 false)
  ret void
}